target datalayout = "e-m:e-p270:32:32-p271:32:32-p272:64:64-i64:64-i128:128-f80:128-n8:16:32:64-S128"
target triple = "x86_64-pc-linux-gnu"

%struct.Mv = type { i32, i32 }
%struct.VVCLocalContext = type { i8, i8, i8, i8, i32, i32, [4 x i8], [3276800 x i8], [16384 x i16], [16384 x i16], [16384 x i16], [32768 x i8], [332800 x i8], [368640 x i8], [368640 x i8], [17424 x i32], %struct.anon, %struct.anon.0, ptr, [2 x [1024 x %struct.ReconstructedArea]], [2 x i32], %struct.NeighbourAvailable, i32, ptr, ptr, ptr, ptr }
%struct.anon = type { i32, i8, i32, i32, i32, [3 x i32], i32, i32, i32, i32, i32, i32 }
%struct.anon.0 = type { i32, i32, i32 }
%struct.ReconstructedArea = type { i32, i32, i32, i32 }
%struct.NeighbourAvailable = type { i32, i32, i32, i32, i32 }
%struct.PredWeightTable = type { [2 x i8], [2 x i8], [2 x [2 x [15 x i8]]], [2 x [3 x [15 x i16]]], [2 x [3 x [15 x i16]]] }
%struct.VVCFrameContext = type { ptr, [17 x %struct.VVCFrame], ptr, ptr, %struct.VVCFrameParamSets, ptr, i32, i32, ptr, %struct.VVCDSPContext, %struct.VideoDSPContext, ptr, i64, ptr, ptr, ptr, ptr, %struct.anon.1 }
%struct.VVCFrame = type { ptr, ptr, ptr, ptr, ptr, ptr, i32, i32, i32, %struct.VVCWindow, i32, i32, ptr, ptr, i16, i8, ptr }
%struct.VVCWindow = type { i16, i16, i16, i16 }
%struct.VVCFrameParamSets = type { ptr, ptr, %struct.VVCPH, [8 x ptr], %struct.VVCLMCS, ptr }
%struct.VVCPH = type { ptr, ptr, i32, i32, i8, [3 x i16], i8, [3 x i16], %struct.PredWeightTable }
%struct.VVCLMCS = type { i8, i8, %union.anon, %union.anon, [17 x i16], [16 x i16] }
%union.anon = type { [4096 x i16] }
%struct.VVCDSPContext = type { %struct.VVCInterDSPContext, %struct.VVCIntraDSPContext, %struct.VVCItxDSPContext, %struct.VVCLMCSDSPContext, %struct.VVCLFDSPContext, %struct.VVCSAODSPContext, %struct.VVCALFDSPContext }
%struct.VVCInterDSPContext = type { [2 x [7 x [2 x [2 x ptr]]]], [2 x [7 x [2 x [2 x ptr]]]], [2 x [7 x [2 x [2 x ptr]]]], [2 x [7 x ptr]], [2 x [7 x ptr]], [2 x [7 x ptr]], ptr, ptr, ptr, ptr, ptr, ptr, ptr, ptr, ptr, ptr, ptr, [2 x [2 x ptr]] }
%struct.VVCIntraDSPContext = type { ptr, ptr, ptr, ptr, ptr, ptr, ptr, ptr, ptr, ptr }
%struct.VVCItxDSPContext = type { ptr, ptr, [3 x [6 x ptr]], ptr, ptr }
%struct.VVCLMCSDSPContext = type { ptr }
%struct.VVCLFDSPContext = type { [2 x ptr], [2 x ptr], [2 x ptr] }
%struct.VVCSAODSPContext = type { [9 x ptr], [9 x ptr], [2 x ptr] }
%struct.VVCALFDSPContext = type { [2 x ptr], ptr, ptr, ptr }
%struct.VideoDSPContext = type { ptr, ptr }
%struct.anon.1 = type { ptr, ptr, ptr, ptr, [2 x ptr], [2 x ptr], [2 x ptr], [2 x ptr], [2 x ptr], [3 x ptr], ptr, ptr, [2 x ptr], ptr, ptr, [2 x ptr], ptr, ptr, ptr, [2 x ptr], ptr, [3 x ptr], ptr, [2 x ptr], [2 x ptr], [2 x ptr], [2 x [3 x ptr]], [2 x ptr], [2 x ptr], [3 x ptr], [3 x ptr], [3 x [2 x ptr]], [3 x [2 x ptr]], ptr, ptr, ptr, [3 x ptr], %struct.anon.2 }
%struct.anon.2 = type { i32, i32, i32, i32, i32, i32, i32, i32, i32, i32, i32, i32 }
%struct.MvField = type { [2 x %struct.Mv], [2 x i8], i8, i8, i8, i8 }
%struct.CodingUnit = type { i32, i32, i32, i32, i32, i32, i32, i8, i8, i8, i8, i32, i32, i8, i8, i8, i8, i8, i32, i32, i32, i32, i32, i32, [3 x i32], [3 x i32], %struct.anon.3, [4 x i8], [3 x %struct.Palette], [4 x i8], %struct.PredictionUnit, ptr }
%struct.anon.3 = type { ptr, ptr }
%struct.Palette = type { i8, [63 x i16] }
%struct.PredictionUnit = type { i8, i8, i8, i8, i8, i8, [2 x %struct.MvField], i32, %struct.MotionInfo, i8, i8, [2 x [16 x i16]], [2 x [16 x i16]], [2 x i32], [4 x i8] }
%struct.MotionInfo = type { i32, [2 x i8], i8, i8, i32, [2 x [3 x %struct.Mv]], i32, i32 }
%struct.VVCSPS = type { ptr, [3 x i8], [3 x i8], i32, i8, i32, i8, i8, i8, i16, i8, i8, i8, i8, i8, i8, i8, i8, [5 x i32], i8, i8, [3 x [111 x i8]] }

@.str = private unnamed_addr constant [33 x i8] c"IBC region spans multiple CTBs.\0A\00", align 1

; Function Attrs: nounwind uwtable
define void @ff_vvc_round_mv(ptr noundef %0, i32 noundef %1, i32 noundef %2) #0 {
  %4 = alloca ptr, align 8
  %5 = alloca i32, align 4
  %6 = alloca i32, align 4
  %7 = alloca i32, align 4
  store ptr %0, ptr %4, align 8, !tbaa !4
  store i32 %1, ptr %5, align 4, !tbaa !9
  store i32 %2, ptr %6, align 4, !tbaa !9
  %8 = load i32, ptr %6, align 4, !tbaa !9
  %9 = icmp ne i32 %8, 0
  br i1 %9, label %10, label %50

10:                                               ; preds = %3
  call void @llvm.lifetime.start.p0(i64 4, ptr %7) #9
  %11 = load i32, ptr %6, align 4, !tbaa !9
  %12 = sub nsw i32 %11, 1
  %13 = shl i32 1, %12
  store i32 %13, ptr %7, align 4, !tbaa !9
  %14 = load ptr, ptr %4, align 8, !tbaa !4
  %15 = getelementptr inbounds nuw %struct.Mv, ptr %14, i32 0, i32 0
  %16 = load i32, ptr %15, align 4, !tbaa !11
  %17 = load i32, ptr %7, align 4, !tbaa !9
  %18 = add nsw i32 %16, %17
  %19 = load ptr, ptr %4, align 8, !tbaa !4
  %20 = getelementptr inbounds nuw %struct.Mv, ptr %19, i32 0, i32 0
  %21 = load i32, ptr %20, align 4, !tbaa !11
  %22 = icmp sge i32 %21, 0
  %23 = zext i1 %22 to i32
  %24 = sub nsw i32 %18, %23
  %25 = load i32, ptr %6, align 4, !tbaa !9
  %26 = ashr i32 %24, %25
  %27 = load i32, ptr %5, align 4, !tbaa !9
  %28 = shl i32 1, %27
  %29 = mul nsw i32 %26, %28
  %30 = load ptr, ptr %4, align 8, !tbaa !4
  %31 = getelementptr inbounds nuw %struct.Mv, ptr %30, i32 0, i32 0
  store i32 %29, ptr %31, align 4, !tbaa !11
  %32 = load ptr, ptr %4, align 8, !tbaa !4
  %33 = getelementptr inbounds nuw %struct.Mv, ptr %32, i32 0, i32 1
  %34 = load i32, ptr %33, align 4, !tbaa !13
  %35 = load i32, ptr %7, align 4, !tbaa !9
  %36 = add nsw i32 %34, %35
  %37 = load ptr, ptr %4, align 8, !tbaa !4
  %38 = getelementptr inbounds nuw %struct.Mv, ptr %37, i32 0, i32 1
  %39 = load i32, ptr %38, align 4, !tbaa !13
  %40 = icmp sge i32 %39, 0
  %41 = zext i1 %40 to i32
  %42 = sub nsw i32 %36, %41
  %43 = load i32, ptr %6, align 4, !tbaa !9
  %44 = ashr i32 %42, %43
  %45 = load i32, ptr %5, align 4, !tbaa !9
  %46 = shl i32 1, %45
  %47 = mul nsw i32 %44, %46
  %48 = load ptr, ptr %4, align 8, !tbaa !4
  %49 = getelementptr inbounds nuw %struct.Mv, ptr %48, i32 0, i32 1
  store i32 %47, ptr %49, align 4, !tbaa !13
  call void @llvm.lifetime.end.p0(i64 4, ptr %7) #9
  br label %67

50:                                               ; preds = %3
  %51 = load ptr, ptr %4, align 8, !tbaa !4
  %52 = getelementptr inbounds nuw %struct.Mv, ptr %51, i32 0, i32 0
  %53 = load i32, ptr %52, align 4, !tbaa !11
  %54 = load i32, ptr %5, align 4, !tbaa !9
  %55 = shl i32 1, %54
  %56 = mul nsw i32 %53, %55
  %57 = load ptr, ptr %4, align 8, !tbaa !4
  %58 = getelementptr inbounds nuw %struct.Mv, ptr %57, i32 0, i32 0
  store i32 %56, ptr %58, align 4, !tbaa !11
  %59 = load ptr, ptr %4, align 8, !tbaa !4
  %60 = getelementptr inbounds nuw %struct.Mv, ptr %59, i32 0, i32 1
  %61 = load i32, ptr %60, align 4, !tbaa !13
  %62 = load i32, ptr %5, align 4, !tbaa !9
  %63 = shl i32 1, %62
  %64 = mul nsw i32 %61, %63
  %65 = load ptr, ptr %4, align 8, !tbaa !4
  %66 = getelementptr inbounds nuw %struct.Mv, ptr %65, i32 0, i32 1
  store i32 %64, ptr %66, align 4, !tbaa !13
  br label %67

67:                                               ; preds = %50, %10
  ret void
}

; Function Attrs: nounwind uwtable
define internal i32 @ibc_check_mv(ptr noundef %0, ptr noundef %1) #0 {
  %3 = alloca i32, align 4
  %4 = alloca ptr, align 8
  %5 = alloca ptr, align 8
  %6 = alloca ptr, align 8
  %7 = alloca ptr, align 8
  %8 = alloca ptr, align 8
  %9 = alloca ptr, align 8
  %10 = alloca i32, align 4
  store ptr %0, ptr %4, align 8, !tbaa !14
  store ptr %1, ptr %5, align 8, !tbaa !4
  call void @llvm.lifetime.start.p0(i64 8, ptr %6) #9
  %11 = load ptr, ptr %4, align 8, !tbaa !14
  %12 = getelementptr inbounds nuw %struct.VVCLocalContext, ptr %11, i32 0, i32 24
  %13 = load ptr, ptr %12, align 8, !tbaa !39
  store ptr %13, ptr %6, align 8, !tbaa !78
  call void @llvm.lifetime.start.p0(i64 8, ptr %7) #9
  %14 = load ptr, ptr %4, align 8, !tbaa !14
  %15 = getelementptr inbounds nuw %struct.VVCLocalContext, ptr %14, i32 0, i32 24
  %16 = load ptr, ptr %15, align 8, !tbaa !39
  %17 = getelementptr inbounds nuw %struct.VVCFrameContext, ptr %16, i32 0, i32 4
  %18 = getelementptr inbounds nuw %struct.VVCFrameParamSets, ptr %17, i32 0, i32 0
  %19 = load ptr, ptr %18, align 8, !tbaa !140
  store ptr %19, ptr %7, align 8, !tbaa !167
  call void @llvm.lifetime.start.p0(i64 8, ptr %8) #9
  %20 = load ptr, ptr %4, align 8, !tbaa !14
  %21 = getelementptr inbounds nuw %struct.VVCLocalContext, ptr %20, i32 0, i32 18
  %22 = load ptr, ptr %21, align 8, !tbaa !90
  store ptr %22, ptr %8, align 8, !tbaa !91
  call void @llvm.lifetime.start.p0(i64 8, ptr %9) #9
  %23 = load ptr, ptr %8, align 8, !tbaa !91
  %24 = getelementptr inbounds nuw %struct.CodingUnit, ptr %23, i32 0, i32 30
  %25 = getelementptr inbounds nuw %struct.PredictionUnit, ptr %24, i32 0, i32 8
  %26 = getelementptr inbounds nuw %struct.MotionInfo, ptr %25, i32 0, i32 5
  %27 = getelementptr inbounds [2 x [3 x %struct.Mv]], ptr %26, i64 0, i64 0
  %28 = getelementptr inbounds [3 x %struct.Mv], ptr %27, i64 0, i64 0
  store ptr %28, ptr %9, align 8, !tbaa !4
  %29 = load ptr, ptr %7, align 8, !tbaa !167
  %30 = getelementptr inbounds nuw %struct.VVCSPS, ptr %29, i32 0, i32 9
  %31 = load i16, ptr %30, align 8, !tbaa !182
  %32 = zext i16 %31 to i32
  %33 = load ptr, ptr %8, align 8, !tbaa !91
  %34 = getelementptr inbounds nuw %struct.CodingUnit, ptr %33, i32 0, i32 2
  %35 = load i32, ptr %34, align 8, !tbaa !109
  %36 = load ptr, ptr %9, align 8, !tbaa !4
  %37 = getelementptr inbounds nuw %struct.Mv, ptr %36, i32 0, i32 1
  %38 = load i32, ptr %37, align 4, !tbaa !13
  %39 = ashr i32 %38, 4
  %40 = add nsw i32 %35, %39
  %41 = load ptr, ptr %7, align 8, !tbaa !167
  %42 = getelementptr inbounds nuw %struct.VVCSPS, ptr %41, i32 0, i32 9
  %43 = load i16, ptr %42, align 8, !tbaa !182
  %44 = zext i16 %43 to i32
  %45 = sub nsw i32 %44, 1
  %46 = and i32 %40, %45
  %47 = load ptr, ptr %8, align 8, !tbaa !91
  %48 = getelementptr inbounds nuw %struct.CodingUnit, ptr %47, i32 0, i32 4
  %49 = load i32, ptr %48, align 8, !tbaa !101
  %50 = add nsw i32 %46, %49
  %51 = icmp slt i32 %32, %50
  br i1 %51, label %52, label %56

52:                                               ; preds = %2
  %53 = load ptr, ptr %6, align 8, !tbaa !78
  %54 = getelementptr inbounds nuw %struct.VVCFrameContext, ptr %53, i32 0, i32 0
  %55 = load ptr, ptr %54, align 8, !tbaa !183
  call void (ptr, i32, ptr, ...) @av_log(ptr noundef %55, i32 noundef 16, ptr noundef @.str)
  store i32 -1094995529, ptr %3, align 4
  store i32 1, ptr %10, align 4
  br label %57

56:                                               ; preds = %2
  store i32 0, ptr %3, align 4
  store i32 1, ptr %10, align 4
  br label %57

57:                                               ; preds = %56, %52
  call void @llvm.lifetime.end.p0(i64 8, ptr %9) #9
  call void @llvm.lifetime.end.p0(i64 8, ptr %8) #9
  call void @llvm.lifetime.end.p0(i64 8, ptr %7) #9
  call void @llvm.lifetime.end.p0(i64 8, ptr %6) #9
  %58 = load i32, ptr %3, align 4
  ret i32 %58
}

; Function Attrs: inlinehint nounwind uwtable
define internal void @ibc_add_mvp(ptr noundef %0, ptr noundef %1, i32 noundef %2) #7 {
  %4 = alloca ptr, align 8
  %5 = alloca ptr, align 8
  %6 = alloca i32, align 4
  store ptr %0, ptr %4, align 8, !tbaa !4
  store ptr %1, ptr %5, align 8, !tbaa !4
  store i32 %2, ptr %6, align 4, !tbaa !9
  %7 = load ptr, ptr %4, align 8, !tbaa !4
  %8 = load i32, ptr %6, align 4, !tbaa !9
  call void @ff_vvc_round_mv(ptr noundef %7, i32 noundef %8, i32 noundef 0)
  %9 = load ptr, ptr %5, align 8, !tbaa !4
  %10 = load i32, ptr %6, align 4, !tbaa !9
  %11 = load i32, ptr %6, align 4, !tbaa !9
  call void @ff_vvc_round_mv(ptr noundef %9, i32 noundef %10, i32 noundef %11)
  %12 = load ptr, ptr %4, align 8, !tbaa !4
  %13 = getelementptr inbounds nuw %struct.Mv, ptr %12, i32 0, i32 0
  %14 = load i32, ptr %13, align 4, !tbaa !11
  %15 = load ptr, ptr %5, align 8, !tbaa !4
  %16 = getelementptr inbounds nuw %struct.Mv, ptr %15, i32 0, i32 0
  %17 = load i32, ptr %16, align 4, !tbaa !11
  %18 = add nsw i32 %14, %17
  %19 = icmp sge i32 %18, 131072
  br i1 %19, label %20, label %29

20:                                               ; preds = %3
  %21 = load ptr, ptr %4, align 8, !tbaa !4
  %22 = getelementptr inbounds nuw %struct.Mv, ptr %21, i32 0, i32 0
  %23 = load i32, ptr %22, align 4, !tbaa !11
  %24 = load ptr, ptr %5, align 8, !tbaa !4
  %25 = getelementptr inbounds nuw %struct.Mv, ptr %24, i32 0, i32 0
  %26 = load i32, ptr %25, align 4, !tbaa !11
  %27 = add nsw i32 %23, %26
  %28 = sub nsw i32 %27, 262144
  br label %37

29:                                               ; preds = %3
  %30 = load ptr, ptr %4, align 8, !tbaa !4
  %31 = getelementptr inbounds nuw %struct.Mv, ptr %30, i32 0, i32 0
  %32 = load i32, ptr %31, align 4, !tbaa !11
  %33 = load ptr, ptr %5, align 8, !tbaa !4
  %34 = getelementptr inbounds nuw %struct.Mv, ptr %33, i32 0, i32 0
  %35 = load i32, ptr %34, align 4, !tbaa !11
  %36 = add nsw i32 %32, %35
  br label %37

37:                                               ; preds = %29, %20
  %38 = phi i32 [ %28, %20 ], [ %36, %29 ]
  %39 = load ptr, ptr %4, align 8, !tbaa !4
  %40 = getelementptr inbounds nuw %struct.Mv, ptr %39, i32 0, i32 0
  store i32 %38, ptr %40, align 4, !tbaa !11
  %41 = load ptr, ptr %4, align 8, !tbaa !4
  %42 = getelementptr inbounds nuw %struct.Mv, ptr %41, i32 0, i32 1
  %43 = load i32, ptr %42, align 4, !tbaa !13
  %44 = load ptr, ptr %5, align 8, !tbaa !4
  %45 = getelementptr inbounds nuw %struct.Mv, ptr %44, i32 0, i32 1
  %46 = load i32, ptr %45, align 4, !tbaa !13
  %47 = add nsw i32 %43, %46
  %48 = icmp sge i32 %47, 131072
  br i1 %48, label %49, label %58

49:                                               ; preds = %37
  %50 = load ptr, ptr %4, align 8, !tbaa !4
  %51 = getelementptr inbounds nuw %struct.Mv, ptr %50, i32 0, i32 1
  %52 = load i32, ptr %51, align 4, !tbaa !13
  %53 = load ptr, ptr %5, align 8, !tbaa !4
  %54 = getelementptr inbounds nuw %struct.Mv, ptr %53, i32 0, i32 1
  %55 = load i32, ptr %54, align 4, !tbaa !13
  %56 = add nsw i32 %52, %55
  %57 = sub nsw i32 %56, 262144
  br label %66

58:                                               ; preds = %37
  %59 = load ptr, ptr %4, align 8, !tbaa !4
  %60 = getelementptr inbounds nuw %struct.Mv, ptr %59, i32 0, i32 1
  %61 = load i32, ptr %60, align 4, !tbaa !13
  %62 = load ptr, ptr %5, align 8, !tbaa !4
  %63 = getelementptr inbounds nuw %struct.Mv, ptr %62, i32 0, i32 1
  %64 = load i32, ptr %63, align 4, !tbaa !13
  %65 = add nsw i32 %61, %64
  br label %66

66:                                               ; preds = %58, %49
  %67 = phi i32 [ %57, %49 ], [ %65, %58 ]
  %68 = load ptr, ptr %4, align 8, !tbaa !4
  %69 = getelementptr inbounds nuw %struct.Mv, ptr %68, i32 0, i32 1
  store i32 %67, ptr %69, align 4, !tbaa !13
  ret void
}

; Function Attrs: nounwind uwtable
define i32 @ff_vvc_mvp_ibc(ptr noundef %0, i32 noundef %1, i32 noundef %2, ptr noundef %3) #0 {
  %5 = alloca ptr, align 8
  %6 = alloca i32, align 4
  %7 = alloca i32, align 4
  %8 = alloca ptr, align 8
  %9 = alloca [1 x %struct.Mv], align 8
  %10 = alloca ptr, align 8
  store ptr %0, ptr %5, align 8, !tbaa !14
  store i32 %1, ptr %6, align 4, !tbaa !9
  store i32 %2, ptr %7, align 4, !tbaa !9
  store ptr %3, ptr %8, align 8, !tbaa !4
  call void @llvm.lifetime.start.p0(i64 8, ptr %9) #9
  call void @llvm.lifetime.start.p0(i64 8, ptr %10) #9
  %11 = getelementptr inbounds [1 x %struct.Mv], ptr %9, i64 0, i64 0
  store ptr %11, ptr %10, align 8, !tbaa !4
  %12 = load ptr, ptr %5, align 8, !tbaa !14
  %13 = load i32, ptr %6, align 4, !tbaa !9
  %14 = load ptr, ptr %10, align 8, !tbaa !4
  call void @ibc_merge_candidates(ptr noundef %12, i32 noundef %13, ptr noundef %14)
  %15 = load ptr, ptr %8, align 8, !tbaa !4
  %16 = load ptr, ptr %10, align 8, !tbaa !4
  %17 = load i32, ptr %7, align 4, !tbaa !9
  call void @ibc_add_mvp(ptr noundef %15, ptr noundef %16, i32 noundef %17)
  %18 = load ptr, ptr %5, align 8, !tbaa !14
  %19 = load ptr, ptr %8, align 8, !tbaa !4
  %20 = call i32 @ibc_check_mv(ptr noundef %18, ptr noundef %19)
  call void @llvm.lifetime.end.p0(i64 8, ptr %10) #9
  call void @llvm.lifetime.end.p0(i64 8, ptr %9) #9
  ret i32 %20
}