; Function Attrs: nounwind uwtable
define range(i32 -1094995529, 1) i32 @ff_vvc_mvp_ibc(ptr noundef %0, i32 noundef %1, i32 noundef %2, ptr noundef captures(none) %3) local_unnamed_addr #7 {
  %5 = alloca [1 x %struct.Mv], align 8
  call void @llvm.lifetime.start.p0(i64 8, ptr nonnull %5) #14
  call fastcc void @ibc_merge_candidates(ptr noundef %0, i32 noundef %1, ptr noundef nonnull %5)
  %6 = load i32, ptr %3, align 4, !tbaa !4
  %7 = shl i32 %6, %2
  %8 = getelementptr inbounds nuw i8, ptr %3, i64 4
  %9 = load i32, ptr %8, align 4, !tbaa !9
  %10 = shl i32 %9, %2
  %.not.i.i = icmp eq i32 %2, 0
  %.pre20.i = load i32, ptr %5, align 8, !tbaa !4
  br i1 %.not.i.i, label %.ff_vvc_round_mv.exit_crit_edge.i, label %11

.ff_vvc_round_mv.exit_crit_edge.i:                ; preds = %4
  %.phi.trans.insert.i = getelementptr inbounds nuw i8, ptr %5, i64 4
  %.pre22.i = load i32, ptr %.phi.trans.insert.i, align 4, !tbaa !9
  br label %ibc_add_mvp.exit

11:                                               ; preds = %4
  %12 = add nsw i32 %2, -1
  %13 = shl nuw i32 1, %12
  %14 = add nsw i32 %.pre20.i, %13
  %15 = icmp sgt i32 %.pre20.i, -1
  %.neg.i.i = sext i1 %15 to i32
  %16 = add i32 %14, %.neg.i.i
  %17 = shl nsw i32 -1, %2
  %18 = and i32 %16, %17
  %19 = getelementptr inbounds nuw i8, ptr %5, i64 4
  %20 = load i32, ptr %19, align 4, !tbaa !9
  %21 = add nsw i32 %20, %13
  %22 = icmp sgt i32 %20, -1
  %.neg19.i.i = sext i1 %22 to i32
  %23 = add i32 %21, %.neg19.i.i
  %24 = and i32 %23, %17
  br label %ibc_add_mvp.exit

ibc_add_mvp.exit:                                 ; preds = %.ff_vvc_round_mv.exit_crit_edge.i, %11
  %25 = phi i32 [ %.pre22.i, %.ff_vvc_round_mv.exit_crit_edge.i ], [ %24, %11 ]
  %26 = phi i32 [ %.pre20.i, %.ff_vvc_round_mv.exit_crit_edge.i ], [ %18, %11 ]
  %27 = add nsw i32 %26, %7
  %28 = icmp sgt i32 %27, 131071
  %29 = add nsw i32 %27, -262144
  %30 = select i1 %28, i32 %29, i32 %27
  store i32 %30, ptr %3, align 4, !tbaa !4
  %31 = add nsw i32 %25, %10
  %32 = icmp sgt i32 %31, 131071
  %33 = add nsw i32 %31, -262144
  %34 = select i1 %32, i32 %33, i32 %31
  store i32 %34, ptr %8, align 4, !tbaa !9
  %35 = getelementptr i8, ptr %0, i64 4547736
  %.val = load ptr, ptr %35, align 8, !tbaa !80
  %36 = getelementptr i8, ptr %0, i64 4580552
  %.val7 = load ptr, ptr %36, align 8, !tbaa !30
  %37 = getelementptr inbounds nuw i8, ptr %.val7, i64 1928
  %38 = load ptr, ptr %37, align 8, !tbaa !104
  %39 = getelementptr inbounds nuw i8, ptr %38, i64 32
  %40 = load i16, ptr %39, align 8, !tbaa !212
  %41 = zext i16 %40 to i32
  %42 = getelementptr inbounds nuw i8, ptr %.val, i64 8
  %43 = load i32, ptr %42, align 8, !tbaa !91
  %44 = getelementptr inbounds nuw i8, ptr %.val, i64 580
  %45 = load i32, ptr %44, align 4, !tbaa !9
  %46 = ashr i32 %45, 4
  %47 = add nsw i32 %46, %43
  %48 = add nsw i32 %41, -1
  %49 = and i32 %47, %48
  %50 = getelementptr inbounds nuw i8, ptr %.val, i64 16
  %51 = load i32, ptr %50, align 8, !tbaa !83
  %52 = add nsw i32 %49, %51
  %53 = icmp sgt i32 %52, %41
  br i1 %53, label %54, label %ibc_check_mv.exit

54:                                               ; preds = %ibc_add_mvp.exit
  %55 = load ptr, ptr %.val7, align 8, !tbaa !213
  tail call void (ptr, i32, ptr, ...) @av_log(ptr noundef %55, i32 noundef 16, ptr noundef nonnull @.str) #14
  br label %ibc_check_mv.exit

ibc_check_mv.exit:                                ; preds = %ibc_add_mvp.exit, %54
  %.0.i = phi i32 [ -1094995529, %54 ], [ 0, %ibc_add_mvp.exit ]
  call void @llvm.lifetime.end.p0(i64 8, ptr nonnull %5) #14
  ret i32 %.0.i
}